target datalayout = "e-m:e-p270:32:32-p271:32:32-p272:64:64-i64:64-i128:128-f80:128-n8:16:32:64-S128"
target triple = "x86_64-pc-linux-gnu"

%struct.t_inputrec = type { i32, i32, i64, i32, i64, i32, i32, i32, i32, i32, i32, i32, i32, i32, i32, i32, double, double, i8, %"class.std::vector", float, float, float, i32, i32, i32, i32, float, float, i32, float, i32, i32, i8, i8, i32, float, i32, i32, i8, %struct.PressureCouplingOptions, %"class.std::vector.3", %"class.std::vector.3", i32, float, float, float, float, i32, i32, float, float, float, float, i8, i32, i32, float, float, i32, float, float, i32, %"class.std::unique_ptr", i8, %"class.std::unique_ptr.10", i8, %"class.std::unique_ptr.18", i32, float, i32, i8, i32, float, float, float, i32, float, float, i32, float, i32, i32, i32, i32, float, i32, i8, float, i64, i32, i32, float, [2 x i32], [2 x float], float, i8, %"class.std::unique_ptr.26", i8, %"class.std::unique_ptr.34", i8, %"class.std::unique_ptr.42", i32, ptr, i8, ptr, float, [3 x [3 x float]], i32, i32, i32, i32, float, float, float, float, %struct.t_grpopts, i8, i8, i8, i8, ptr, %"class.std::unique_ptr.50" }
%"class.std::vector" = type { %"struct.std::_Vector_base" }
%"struct.std::_Vector_base" = type { %"struct.std::_Vector_base<gmx::MtsLevel, std::allocator<gmx::MtsLevel>>::_Vector_impl" }
%"struct.std::_Vector_base<gmx::MtsLevel, std::allocator<gmx::MtsLevel>>::_Vector_impl" = type { %"struct.std::_Vector_base<gmx::MtsLevel, std::allocator<gmx::MtsLevel>>::_Vector_impl_data" }
%"struct.std::_Vector_base<gmx::MtsLevel, std::allocator<gmx::MtsLevel>>::_Vector_impl_data" = type { ptr, ptr, ptr }
%struct.PressureCouplingOptions = type { i32, i32, i32, float, [3 x [3 x float]], [3 x [3 x float]], i32 }
%"class.std::vector.3" = type { %"struct.std::_Vector_base.4" }
%"struct.std::_Vector_base.4" = type { %"struct.std::_Vector_base<gmx::BasicVector<float>, std::allocator<gmx::BasicVector<float>>>::_Vector_impl" }
%"struct.std::_Vector_base<gmx::BasicVector<float>, std::allocator<gmx::BasicVector<float>>>::_Vector_impl" = type { %"struct.std::_Vector_base<gmx::BasicVector<float>, std::allocator<gmx::BasicVector<float>>>::_Vector_impl_data" }
%"struct.std::_Vector_base<gmx::BasicVector<float>, std::allocator<gmx::BasicVector<float>>>::_Vector_impl_data" = type { ptr, ptr, ptr }
%"class.std::unique_ptr" = type { %"struct.std::__uniq_ptr_data" }
%"struct.std::__uniq_ptr_data" = type { %"class.std::__uniq_ptr_impl" }
%"class.std::__uniq_ptr_impl" = type { %"class.std::tuple" }
%"class.std::tuple" = type { %"struct.std::_Tuple_impl" }
%"struct.std::_Tuple_impl" = type { %"struct.std::_Head_base.9" }
%"struct.std::_Head_base.9" = type { ptr }
%"class.std::unique_ptr.10" = type { %"struct.std::__uniq_ptr_data.11" }
%"struct.std::__uniq_ptr_data.11" = type { %"class.std::__uniq_ptr_impl.12" }
%"class.std::__uniq_ptr_impl.12" = type { %"class.std::tuple.13" }
%"class.std::tuple.13" = type { %"struct.std::_Tuple_impl.14" }
%"struct.std::_Tuple_impl.14" = type { %"struct.std::_Head_base.17" }
%"struct.std::_Head_base.17" = type { ptr }
%"class.std::unique_ptr.18" = type { %"struct.std::__uniq_ptr_data.19" }
%"struct.std::__uniq_ptr_data.19" = type { %"class.std::__uniq_ptr_impl.20" }
%"class.std::__uniq_ptr_impl.20" = type { %"class.std::tuple.21" }
%"class.std::tuple.21" = type { %"struct.std::_Tuple_impl.22" }
%"struct.std::_Tuple_impl.22" = type { %"struct.std::_Head_base.25" }
%"struct.std::_Head_base.25" = type { ptr }
%"class.std::unique_ptr.26" = type { %"struct.std::__uniq_ptr_data.27" }
%"struct.std::__uniq_ptr_data.27" = type { %"class.std::__uniq_ptr_impl.28" }
%"class.std::__uniq_ptr_impl.28" = type { %"class.std::tuple.29" }
%"class.std::tuple.29" = type { %"struct.std::_Tuple_impl.30" }
%"struct.std::_Tuple_impl.30" = type { %"struct.std::_Head_base.33" }
%"struct.std::_Head_base.33" = type { ptr }
%"class.std::unique_ptr.34" = type { %"struct.std::__uniq_ptr_data.35" }
%"struct.std::__uniq_ptr_data.35" = type { %"class.std::__uniq_ptr_impl.36" }
%"class.std::__uniq_ptr_impl.36" = type { %"class.std::tuple.37" }
%"class.std::tuple.37" = type { %"struct.std::_Tuple_impl.38" }
%"struct.std::_Tuple_impl.38" = type { %"struct.std::_Head_base.41" }
%"struct.std::_Head_base.41" = type { ptr }
%"class.std::unique_ptr.42" = type { %"struct.std::__uniq_ptr_data.43" }
%"struct.std::__uniq_ptr_data.43" = type { %"class.std::__uniq_ptr_impl.44" }
%"class.std::__uniq_ptr_impl.44" = type { %"class.std::tuple.45" }
%"class.std::tuple.45" = type { %"struct.std::_Tuple_impl.46" }
%"struct.std::_Tuple_impl.46" = type { %"struct.std::_Head_base.49" }
%"struct.std::_Head_base.49" = type { ptr }
%struct.t_grpopts = type <{ i32, i32, i32, i32, i32, [4 x i8], ptr, ptr, ptr, ptr, ptr, ptr, ptr, ptr, ptr, ptr, i32, [4 x i8] }>
%"class.std::unique_ptr.50" = type { %"struct.std::__uniq_ptr_data.51" }
%"struct.std::__uniq_ptr_data.51" = type { %"class.std::__uniq_ptr_impl.52" }
%"class.std::__uniq_ptr_impl.52" = type { %"class.std::tuple.53" }
%"class.std::tuple.53" = type { %"struct.std::_Tuple_impl.54" }
%"struct.std::_Tuple_impl.54" = type { %"struct.std::_Head_base.57" }
%"struct.std::_Head_base.57" = type { ptr }

; Function Attrs: inlinehint mustprogress nounwind uwtable
define linkonce_odr noundef nonnull align 4 dereferenceable(4) ptr @_ZSt3maxIfERKT_S2_S2_(ptr noundef nonnull align 4 dereferenceable(4) %0, ptr noundef nonnull align 4 dereferenceable(4) %1) #4 comdat {
  %3 = alloca ptr, align 8
  %4 = alloca ptr, align 8
  %5 = alloca ptr, align 8
  store ptr %0, ptr %4, align 8, !tbaa !519
  store ptr %1, ptr %5, align 8, !tbaa !519
  %6 = load ptr, ptr %4, align 8, !tbaa !519
  %7 = load float, ptr %6, align 4, !tbaa !213
  %8 = load ptr, ptr %5, align 8, !tbaa !519
  %9 = load float, ptr %8, align 4, !tbaa !213
  %10 = fcmp olt float %7, %9
  br i1 %10, label %11, label %13

11:                                               ; preds = %2
  %12 = load ptr, ptr %5, align 8, !tbaa !519
  store ptr %12, ptr %3, align 8
  br label %15

13:                                               ; preds = %2
  %14 = load ptr, ptr %4, align 8, !tbaa !519
  store ptr %14, ptr %3, align 8
  br label %15

15:                                               ; preds = %13, %11
  %16 = load ptr, ptr %3, align 8
  ret ptr %16
}

; Function Attrs: mustprogress uwtable
define noundef float @_Z23maxReferenceTemperatureRK10t_inputrec(ptr noundef nonnull align 8 dereferenceable(880) %0) #3 {
  %2 = alloca float, align 4
  %3 = alloca ptr, align 8
  %4 = alloca float, align 4
  %5 = alloca i32, align 4
  store ptr %0, ptr %3, align 8, !tbaa !34
  %6 = load ptr, ptr %3, align 8, !tbaa !34
  %7 = getelementptr inbounds nuw %struct.t_inputrec, ptr %6, i32 0, i32 1
  %8 = load i32, ptr %7, align 4, !tbaa !129
  %9 = icmp eq i32 %8, 1
  br i1 %9, label %25, label %10

10:                                               ; preds = %1
  %11 = load ptr, ptr %3, align 8, !tbaa !34
  %12 = getelementptr inbounds nuw %struct.t_inputrec, ptr %11, i32 0, i32 1
  %13 = load i32, ptr %12, align 4, !tbaa !129
  %14 = icmp eq i32 %13, 2
  br i1 %14, label %25, label %15

15:                                               ; preds = %10
  %16 = load ptr, ptr %3, align 8, !tbaa !34
  %17 = getelementptr inbounds nuw %struct.t_inputrec, ptr %16, i32 0, i32 1
  %18 = load i32, ptr %17, align 4, !tbaa !129
  %19 = icmp eq i32 %18, 6
  br i1 %19, label %25, label %20

20:                                               ; preds = %15
  %21 = load ptr, ptr %3, align 8, !tbaa !34
  %22 = getelementptr inbounds nuw %struct.t_inputrec, ptr %21, i32 0, i32 1
  %23 = load i32, ptr %22, align 4, !tbaa !129
  %24 = icmp eq i32 %23, 5
  br i1 %24, label %25, label %26

25:                                               ; preds = %20, %15, %10, %1
  store float 0.000000e+00, ptr %2, align 4
  br label %87

26:                                               ; preds = %20
  %27 = load ptr, ptr %3, align 8, !tbaa !34
  %28 = getelementptr inbounds nuw %struct.t_inputrec, ptr %27, i32 0, i32 1
  %29 = load i32, ptr %28, align 4, !tbaa !129
  %30 = icmp eq i32 %29, 0
  br i1 %30, label %46, label %31

31:                                               ; preds = %26
  %32 = load ptr, ptr %3, align 8, !tbaa !34
  %33 = getelementptr inbounds nuw %struct.t_inputrec, ptr %32, i32 0, i32 1
  %34 = load i32, ptr %33, align 4, !tbaa !129
  %35 = icmp eq i32 %34, 10
  br i1 %35, label %46, label %36

36:                                               ; preds = %31
  %37 = load ptr, ptr %3, align 8, !tbaa !34
  %38 = getelementptr inbounds nuw %struct.t_inputrec, ptr %37, i32 0, i32 1
  %39 = load i32, ptr %38, align 4, !tbaa !129
  %40 = icmp eq i32 %39, 11
  br i1 %40, label %46, label %41

41:                                               ; preds = %36
  %42 = load ptr, ptr %3, align 8, !tbaa !34
  %43 = getelementptr inbounds nuw %struct.t_inputrec, ptr %42, i32 0, i32 1
  %44 = load i32, ptr %43, align 4, !tbaa !129
  %45 = icmp eq i32 %44, 12
  br i1 %45, label %46, label %52

46:                                               ; preds = %41, %36, %31, %26
  %47 = load ptr, ptr %3, align 8, !tbaa !34
  %48 = getelementptr inbounds nuw %struct.t_inputrec, ptr %47, i32 0, i32 37
  %49 = load i32, ptr %48, align 8, !tbaa !162
  %50 = icmp eq i32 %49, 0
  br i1 %50, label %51, label %52

51:                                               ; preds = %46
  store float -1.000000e+00, ptr %2, align 4
  br label %87

52:                                               ; preds = %46, %41
  call void @llvm.lifetime.start.p0(i64 4, ptr %4) #5
  store float 0.000000e+00, ptr %4, align 4, !tbaa !213
  call void @llvm.lifetime.start.p0(i64 4, ptr %5) #5
  store i32 0, ptr %5, align 4, !tbaa !212
  br label %53

53:                                               ; preds = %82, %52
  %54 = load i32, ptr %5, align 4, !tbaa !212
  %55 = load ptr, ptr %3, align 8, !tbaa !34
  %56 = getelementptr inbounds nuw %struct.t_inputrec, ptr %55, i32 0, i32 116
  %57 = getelementptr inbounds nuw %struct.t_grpopts, ptr %56, i32 0, i32 0
  %58 = load i32, ptr %57, align 8, !tbaa !527
  %59 = icmp slt i32 %54, %58
  br i1 %59, label %61, label %60

60:                                               ; preds = %53
  call void @llvm.lifetime.end.p0(i64 4, ptr %5) #5
  br label %85

61:                                               ; preds = %53
  %62 = load ptr, ptr %3, align 8, !tbaa !34
  %63 = getelementptr inbounds nuw %struct.t_inputrec, ptr %62, i32 0, i32 116
  %64 = getelementptr inbounds nuw %struct.t_grpopts, ptr %63, i32 0, i32 12
  %65 = load ptr, ptr %64, align 8, !tbaa !534
  %66 = load i32, ptr %5, align 4, !tbaa !212
  %67 = sext i32 %66 to i64
  %68 = getelementptr inbounds float, ptr %65, i64 %67
  %69 = load float, ptr %68, align 4, !tbaa !213
  %70 = fcmp oge float %69, 0.000000e+00
  br i1 %70, label %71, label %81

71:                                               ; preds = %61
  %72 = load ptr, ptr %3, align 8, !tbaa !34
  %73 = getelementptr inbounds nuw %struct.t_inputrec, ptr %72, i32 0, i32 116
  %74 = getelementptr inbounds nuw %struct.t_grpopts, ptr %73, i32 0, i32 7
  %75 = load ptr, ptr %74, align 8, !tbaa !526
  %76 = load i32, ptr %5, align 4, !tbaa !212
  %77 = sext i32 %76 to i64
  %78 = getelementptr inbounds float, ptr %75, i64 %77
  %79 = call noundef nonnull align 4 dereferenceable(4) ptr @_ZSt3maxIfERKT_S2_S2_(ptr noundef nonnull align 4 dereferenceable(4) %4, ptr noundef nonnull align 4 dereferenceable(4) %78)
  %80 = load float, ptr %79, align 4, !tbaa !213
  store float %80, ptr %4, align 4, !tbaa !213
  br label %81

81:                                               ; preds = %71, %61
  br label %82

82:                                               ; preds = %81
  %83 = load i32, ptr %5, align 4, !tbaa !212
  %84 = add nsw i32 %83, 1
  store i32 %84, ptr %5, align 4, !tbaa !212
  br label %53, !llvm.loop !1050

85:                                               ; preds = %60
  %86 = load float, ptr %4, align 4, !tbaa !213
  store float %86, ptr %2, align 4
  call void @llvm.lifetime.end.p0(i64 4, ptr %4) #5
  br label %87

87:                                               ; preds = %85, %51, %25
  %88 = load float, ptr %2, align 4
  ret float %88
}