; Function Attrs: mustprogress nofree norecurse nosync nounwind willreturn memory(read, inaccessiblemem: none) uwtable
define noundef float @_Z23maxReferenceTemperatureRK10t_inputrec(ptr noundef nonnull readonly align 8 captures(none) dereferenceable(880) %0) local_unnamed_addr #17 {
  %2 = getelementptr inbounds nuw i8, ptr %0, i64 4
  %3 = load i32, ptr %2, align 4, !tbaa !265
  switch i32 %3, label %8 [
    i32 1, label %.loopexit
    i32 2, label %.loopexit
    i32 6, label %.loopexit
    i32 5, label %.loopexit
    i32 0, label %4
    i32 10, label %4
    i32 11, label %4
    i32 12, label %4
  ]

4:                                                ; preds = %1, %1, %1, %1
  %5 = getelementptr inbounds nuw i8, ptr %0, i64 192
  %6 = load i32, ptr %5, align 8, !tbaa !242
  %7 = icmp eq i32 %6, 0
  br i1 %7, label %.loopexit, label %8

8:                                                ; preds = %1, %4
  %9 = getelementptr inbounds nuw i8, ptr %0, i64 744
  %10 = load i32, ptr %9, align 8, !tbaa !191
  %11 = icmp sgt i32 %10, 0
  br i1 %11, label %.lr.ph, label %.loopexit

.lr.ph:                                           ; preds = %8
  %12 = getelementptr inbounds nuw i8, ptr %0, i64 816
  %13 = load ptr, ptr %12, align 8, !tbaa !196
  %14 = getelementptr inbounds nuw i8, ptr %0, i64 776
  %15 = load ptr, ptr %14, align 8
  %wide.trip.count = zext nneg i32 %10 to i64
  br label %16

16:                                               ; preds = %.lr.ph, %24
  %indvars.iv = phi i64 [ 0, %.lr.ph ], [ %indvars.iv.next, %24 ]
  %.01920 = phi float [ 0.000000e+00, %.lr.ph ], [ %.1, %24 ]
  %17 = getelementptr inbounds nuw float, ptr %13, i64 %indvars.iv
  %18 = load float, ptr %17, align 4, !tbaa !243
  %19 = fcmp ult float %18, 0.000000e+00
  br i1 %19, label %24, label %20

20:                                               ; preds = %16
  %21 = getelementptr inbounds nuw float, ptr %15, i64 %indvars.iv
  %22 = load float, ptr %21, align 4, !tbaa !243
  %23 = fcmp olt float %.01920, %22
  %.sroa.speculated = select i1 %23, float %22, float %.01920
  br label %24

24:                                               ; preds = %16, %20
  %.1 = phi float [ %.01920, %16 ], [ %.sroa.speculated, %20 ]
  %indvars.iv.next = add nuw nsw i64 %indvars.iv, 1
  %exitcond.not = icmp eq i64 %indvars.iv.next, %wide.trip.count
  br i1 %exitcond.not, label %.loopexit, label %16, !llvm.loop !584

.loopexit:                                        ; preds = %24, %8, %4, %1, %1, %1, %1
  %.016 = phi float [ 0.000000e+00, %1 ], [ 0.000000e+00, %1 ], [ 0.000000e+00, %1 ], [ 0.000000e+00, %1 ], [ -1.000000e+00, %4 ], [ 0.000000e+00, %8 ], [ %.1, %24 ]
  ret float %.016
}